; Function Attrs: mustprogress uwtable
define dso_local noundef zeroext i1 @_ZN3dap4json17JsonCppSerializer6objectERKSt8functionIFbPNS_15FieldSerializerEEE(ptr nocapture noundef nonnull readonly align 8 dereferenceable(18) %0, ptr noundef nonnull align 8 dereferenceable(32) %1) unnamed_addr #0 align 2 personality ptr @__gxx_personality_v0 {
  %3 = alloca ptr, align 8
  %4 = alloca %"class.Json::Value", align 8
  %5 = alloca %struct.FS, align 8
  call void @_ZN4Json5ValueC1ENS_9ValueTypeE(ptr noundef nonnull align 8 dereferenceable(40) %4, i32 noundef 7)
  %6 = getelementptr inbounds i8, ptr %0, i64 8
  %7 = load ptr, ptr %6, align 8
  %8 = call noundef nonnull align 8 dereferenceable(40) ptr @_ZN4Json5ValueaSEOS0_(ptr noundef nonnull align 8 dereferenceable(40) %7, ptr noundef nonnull align 8 dereferenceable(40) %4) #21
  call void @_ZN4Json5ValueD1Ev(ptr noundef nonnull align 8 dereferenceable(40) %4) #21
  %9 = load ptr, ptr %6, align 8
  store ptr getelementptr inbounds ({ [5 x ptr] }, ptr @_ZTVZN3dap4json17JsonCppSerializer6objectERKSt8functionIFbPNS_15FieldSerializerEEEE2FS, i64 0, i32 0, i64 2), ptr %5, align 8
  %10 = getelementptr inbounds i8, ptr %5, i64 8
  store ptr %9, ptr %10, align 8
  call void @llvm.lifetime.start.p0(i64 8, ptr nonnull %3)
  store ptr %5, ptr %3, align 8
  %11 = getelementptr inbounds i8, ptr %1, i64 16
  %12 = load ptr, ptr %11, align 8
  %.not.i.i = icmp eq ptr %12, null
  br i1 %.not.i.i, label %.noexc, label %13

.noexc:                                           ; preds = %2
  call void @_ZSt25__throw_bad_function_callv() #23
  unreachable

13:                                               ; preds = %2
  %14 = getelementptr inbounds i8, ptr %1, i64 24
  %15 = load ptr, ptr %14, align 8
  %16 = call noundef zeroext i1 %15(ptr noundef nonnull align 8 dereferenceable(16) %1, ptr noundef nonnull align 8 dereferenceable(8) %3)
  call void @llvm.lifetime.end.p0(i64 8, ptr nonnull %3)
  ret i1 %16
}